; Function Attrs: mustprogress nounwind uwtable
define void @_ZN7glslang7TShaderD2Ev(ptr noundef nonnull align 8 dereferenceable(165) initializes((0, 8)) %0) unnamed_addr #3 align 2 {
  store ptr getelementptr inbounds nuw inrange(-16, 16) (i8, ptr @_ZTVN7glslang7TShaderE, i64 16), ptr %0, align 8
  %2 = getelementptr inbounds nuw i8, ptr %0, i64 40
  %3 = load ptr, ptr %2, align 8
  %4 = icmp eq ptr %3, null
  br i1 %4, label %7, label %5

5:                                                ; preds = %1
  %6 = getelementptr inbounds nuw i8, ptr %3, i64 48
  tail call void @_ZNSt7__cxx1112basic_stringIcSt11char_traitsIcESaIcEED1Ev(ptr noundef nonnull align 8 dereferenceable(48) %6) #24
  tail call void @_ZNSt7__cxx1112basic_stringIcSt11char_traitsIcESaIcEED1Ev(ptr noundef nonnull align 8 dereferenceable(96) %3) #24
  tail call void @_ZdlPvm(ptr noundef nonnull %3, i64 noundef 96) #27
  br label %7

7:                                                ; preds = %5, %1
  %8 = getelementptr inbounds nuw i8, ptr %0, i64 24
  %9 = load ptr, ptr %8, align 8
  %10 = icmp eq ptr %9, null
  br i1 %10, label %15, label %11

11:                                               ; preds = %7
  %12 = load ptr, ptr %9, align 8
  %13 = getelementptr inbounds nuw i8, ptr %12, i64 8
  %14 = load ptr, ptr %13, align 8
  tail call void %14(ptr noundef nonnull align 8 dereferenceable(29) %9) #24
  br label %15

15:                                               ; preds = %11, %7
  %16 = getelementptr inbounds nuw i8, ptr %0, i64 32
  %17 = load ptr, ptr %16, align 8
  %18 = icmp eq ptr %17, null
  br i1 %18, label %20, label %19

19:                                               ; preds = %15
  tail call void @_ZN7glslang13TIntermediateD2Ev(ptr noundef nonnull align 8 dereferenceable(2024) %17) #24
  tail call void @_ZdlPvm(ptr noundef nonnull %17, i64 noundef 2024) #27
  br label %20

20:                                               ; preds = %19, %15
  %21 = getelementptr inbounds nuw i8, ptr %0, i64 8
  %22 = load ptr, ptr %21, align 8
  %23 = icmp eq ptr %22, null
  br i1 %23, label %25, label %24

24:                                               ; preds = %20
  tail call void @_ZN7glslang14TPoolAllocatorD1Ev(ptr noundef nonnull align 8 dereferenceable(96) %22) #24
  tail call void @_ZdlPvm(ptr noundef nonnull %22, i64 noundef 96) #27
  br label %25

25:                                               ; preds = %24, %20
  %26 = getelementptr inbounds nuw i8, ptr %0, i64 88
  tail call void @_ZNSt7__cxx1112basic_stringIcSt11char_traitsIcESaIcEED1Ev(ptr noundef nonnull align 8 dereferenceable(32) %26) #24
  ret void
}